target datalayout = "e-m:e-p270:32:32-p271:32:32-p272:64:64-i64:64-i128:128-f80:128-n8:16:32:64-S128"
target triple = "x86_64-pc-linux-gnu"

@_ZNSt14overflow_errorD1Ev = dso_local unnamed_addr alias void (ptr), ptr @_ZNSt14overflow_errorD2Ev

; Function Attrs: mustprogress nounwind uwtable
define dso_local void @_ZNSt14overflow_errorD0Ev(ptr noundef nonnull align 8 dereferenceable(16) %0) unnamed_addr #0 align 2 {
  %2 = alloca ptr, align 8
  store ptr %0, ptr %2, align 8, !tbaa !30
  %3 = load ptr, ptr %2, align 8
  call void @_ZNSt14overflow_errorD1Ev(ptr noundef nonnull align 8 dereferenceable(16) %3) #6
  call void @_ZdlPvm(ptr noundef %3, i64 noundef 16) #8
  ret void
}